target datalayout = "e-m:e-p270:32:32-p271:32:32-p272:64:64-i64:64-i128:128-f80:128-n8:16:32:64-S128"
target triple = "x86_64-pc-linux-gnu"

%struct.TrueMotion1Context = type { ptr, ptr, ptr, i32, ptr, i32, ptr, i32, i32, i32, i32, i32, i32, [1024 x i32], [1024 x i32], [1024 x i32], [1024 x i32], i32, i32, i32, i32, [8 x i16], [8 x i16], [8 x i16], [8 x i16], i32, i32, ptr, i32 }

; Function Attrs: nounwind uwtable
define internal i32 @make_cdt24_entry(i32 noundef %0, i32 noundef %1, ptr noundef %2) #1 {
  %4 = alloca i32, align 4
  %5 = alloca i32, align 4
  %6 = alloca ptr, align 8
  %7 = alloca i32, align 4
  %8 = alloca i32, align 4
  store i32 %0, ptr %4, align 4, !tbaa !45
  store i32 %1, ptr %5, align 4, !tbaa !45
  store ptr %2, ptr %6, align 8, !tbaa !92
  call void @llvm.lifetime.start.p0(i64 4, ptr %7) #6
  call void @llvm.lifetime.start.p0(i64 4, ptr %8) #6
  %9 = load ptr, ptr %6, align 8, !tbaa !92
  %10 = load i32, ptr %5, align 4, !tbaa !45
  %11 = sext i32 %10 to i64
  %12 = getelementptr inbounds i16, ptr %9, i64 %11
  %13 = load i16, ptr %12, align 2, !tbaa !93
  %14 = sext i16 %13 to i32
  store i32 %14, ptr %8, align 4, !tbaa !45
  %15 = load ptr, ptr %6, align 8, !tbaa !92
  %16 = load i32, ptr %4, align 4, !tbaa !45
  %17 = sext i32 %16 to i64
  %18 = getelementptr inbounds i16, ptr %15, i64 %17
  %19 = load i16, ptr %18, align 2, !tbaa !93
  %20 = sext i16 %19 to i32
  %21 = mul nsw i32 %20, 65536
  store i32 %21, ptr %7, align 4, !tbaa !45
  %22 = load i32, ptr %8, align 4, !tbaa !45
  %23 = load i32, ptr %7, align 4, !tbaa !45
  %24 = add nsw i32 %22, %23
  %25 = mul nsw i32 %24, 2
  call void @llvm.lifetime.end.p0(i64 4, ptr %8) #6
  call void @llvm.lifetime.end.p0(i64 4, ptr %7) #6
  ret i32 %25
}

; Function Attrs: nounwind uwtable
define internal i32 @make_ydt24_entry(i32 noundef %0, i32 noundef %1, ptr noundef %2) #1 {
  %4 = alloca i32, align 4
  %5 = alloca i32, align 4
  %6 = alloca ptr, align 8
  %7 = alloca i32, align 4
  %8 = alloca i32, align 4
  store i32 %0, ptr %4, align 4, !tbaa !45
  store i32 %1, ptr %5, align 4, !tbaa !45
  store ptr %2, ptr %6, align 8, !tbaa !92
  call void @llvm.lifetime.start.p0(i64 4, ptr %7) #6
  call void @llvm.lifetime.start.p0(i64 4, ptr %8) #6
  %9 = load ptr, ptr %6, align 8, !tbaa !92
  %10 = load i32, ptr %4, align 4, !tbaa !45
  %11 = sext i32 %10 to i64
  %12 = getelementptr inbounds i16, ptr %9, i64 %11
  %13 = load i16, ptr %12, align 2, !tbaa !93
  %14 = sext i16 %13 to i32
  store i32 %14, ptr %7, align 4, !tbaa !45
  %15 = load ptr, ptr %6, align 8, !tbaa !92
  %16 = load i32, ptr %5, align 4, !tbaa !45
  %17 = sext i32 %16 to i64
  %18 = getelementptr inbounds i16, ptr %15, i64 %17
  %19 = load i16, ptr %18, align 2, !tbaa !93
  %20 = sext i16 %19 to i32
  store i32 %20, ptr %8, align 4, !tbaa !45
  %21 = load i32, ptr %7, align 4, !tbaa !45
  %22 = load i32, ptr %8, align 4, !tbaa !45
  %23 = mul nsw i32 %22, 256
  %24 = add nsw i32 %21, %23
  %25 = load i32, ptr %8, align 4, !tbaa !45
  %26 = mul nsw i32 %25, 65536
  %27 = add nsw i32 %24, %26
  %28 = mul nsw i32 %27, 2
  call void @llvm.lifetime.end.p0(i64 4, ptr %8) #6
  call void @llvm.lifetime.end.p0(i64 4, ptr %7) #6
  ret i32 %28
}

; Function Attrs: nounwind uwtable
define internal void @gen_vector_table24(ptr noundef %0, ptr noundef %1) #1 {
  %3 = alloca ptr, align 8
  %4 = alloca ptr, align 8
  %5 = alloca i32, align 4
  %6 = alloca i32, align 4
  %7 = alloca i32, align 4
  %8 = alloca i8, align 1
  store ptr %0, ptr %3, align 8, !tbaa !29
  store ptr %1, ptr %4, align 8, !tbaa !43
  call void @llvm.lifetime.start.p0(i64 4, ptr %5) #6
  call void @llvm.lifetime.start.p0(i64 4, ptr %6) #6
  call void @llvm.lifetime.start.p0(i64 4, ptr %7) #6
  call void @llvm.lifetime.start.p0(i64 1, ptr %8) #6
  store i32 0, ptr %6, align 4, !tbaa !45
  br label %9

9:                                                ; preds = %142, %2
  %10 = load i32, ptr %6, align 4, !tbaa !45
  %11 = icmp slt i32 %10, 1024
  br i1 %11, label %12, label %145

12:                                               ; preds = %9
  %13 = load ptr, ptr %4, align 8, !tbaa !43
  %14 = getelementptr inbounds nuw i8, ptr %13, i32 1
  store ptr %14, ptr %4, align 8, !tbaa !43
  %15 = load i8, ptr %13, align 1, !tbaa !51
  %16 = zext i8 %15 to i32
  %17 = sdiv i32 %16, 2
  store i32 %17, ptr %5, align 4, !tbaa !45
  store i32 0, ptr %7, align 4, !tbaa !45
  br label %18

18:                                               ; preds = %98, %12
  %19 = load i32, ptr %7, align 4, !tbaa !45
  %20 = load i32, ptr %5, align 4, !tbaa !45
  %21 = icmp slt i32 %19, %20
  br i1 %21, label %22, label %101

22:                                               ; preds = %18
  %23 = load ptr, ptr %4, align 8, !tbaa !43
  %24 = getelementptr inbounds nuw i8, ptr %23, i32 1
  store ptr %24, ptr %4, align 8, !tbaa !43
  %25 = load i8, ptr %23, align 1, !tbaa !51
  store i8 %25, ptr %8, align 1, !tbaa !51
  %26 = load i8, ptr %8, align 1, !tbaa !51
  %27 = zext i8 %26 to i32
  %28 = ashr i32 %27, 4
  %29 = load i8, ptr %8, align 1, !tbaa !51
  %30 = zext i8 %29 to i32
  %31 = and i32 %30, 15
  %32 = load ptr, ptr %3, align 8, !tbaa !29
  %33 = getelementptr inbounds nuw %struct.TrueMotion1Context, ptr %32, i32 0, i32 21
  %34 = getelementptr inbounds [8 x i16], ptr %33, i64 0, i64 0
  %35 = call i32 @make_ydt24_entry(i32 noundef %28, i32 noundef %31, ptr noundef %34)
  %36 = and i32 -2, %35
  %37 = load ptr, ptr %3, align 8, !tbaa !29
  %38 = getelementptr inbounds nuw %struct.TrueMotion1Context, ptr %37, i32 0, i32 13
  %39 = load i32, ptr %6, align 4, !tbaa !45
  %40 = load i32, ptr %7, align 4, !tbaa !45
  %41 = add nsw i32 %39, %40
  %42 = sext i32 %41 to i64
  %43 = getelementptr inbounds [1024 x i32], ptr %38, i64 0, i64 %42
  store i32 %36, ptr %43, align 4, !tbaa !45
  %44 = load i8, ptr %8, align 1, !tbaa !51
  %45 = zext i8 %44 to i32
  %46 = ashr i32 %45, 4
  %47 = load i8, ptr %8, align 1, !tbaa !51
  %48 = zext i8 %47 to i32
  %49 = and i32 %48, 15
  %50 = load ptr, ptr %3, align 8, !tbaa !29
  %51 = getelementptr inbounds nuw %struct.TrueMotion1Context, ptr %50, i32 0, i32 22
  %52 = getelementptr inbounds [8 x i16], ptr %51, i64 0, i64 0
  %53 = call i32 @make_cdt24_entry(i32 noundef %46, i32 noundef %49, ptr noundef %52)
  %54 = and i32 -2, %53
  %55 = load ptr, ptr %3, align 8, !tbaa !29
  %56 = getelementptr inbounds nuw %struct.TrueMotion1Context, ptr %55, i32 0, i32 14
  %57 = load i32, ptr %6, align 4, !tbaa !45
  %58 = load i32, ptr %7, align 4, !tbaa !45
  %59 = add nsw i32 %57, %58
  %60 = sext i32 %59 to i64
  %61 = getelementptr inbounds [1024 x i32], ptr %56, i64 0, i64 %60
  store i32 %54, ptr %61, align 4, !tbaa !45
  %62 = load i8, ptr %8, align 1, !tbaa !51
  %63 = zext i8 %62 to i32
  %64 = ashr i32 %63, 4
  %65 = load i8, ptr %8, align 1, !tbaa !51
  %66 = zext i8 %65 to i32
  %67 = and i32 %66, 15
  %68 = load ptr, ptr %3, align 8, !tbaa !29
  %69 = getelementptr inbounds nuw %struct.TrueMotion1Context, ptr %68, i32 0, i32 23
  %70 = getelementptr inbounds [8 x i16], ptr %69, i64 0, i64 0
  %71 = call i32 @make_ydt24_entry(i32 noundef %64, i32 noundef %67, ptr noundef %70)
  %72 = and i32 -2, %71
  %73 = load ptr, ptr %3, align 8, !tbaa !29
  %74 = getelementptr inbounds nuw %struct.TrueMotion1Context, ptr %73, i32 0, i32 15
  %75 = load i32, ptr %6, align 4, !tbaa !45
  %76 = load i32, ptr %7, align 4, !tbaa !45
  %77 = add nsw i32 %75, %76
  %78 = sext i32 %77 to i64
  %79 = getelementptr inbounds [1024 x i32], ptr %74, i64 0, i64 %78
  store i32 %72, ptr %79, align 4, !tbaa !45
  %80 = load i8, ptr %8, align 1, !tbaa !51
  %81 = zext i8 %80 to i32
  %82 = ashr i32 %81, 4
  %83 = load i8, ptr %8, align 1, !tbaa !51
  %84 = zext i8 %83 to i32
  %85 = and i32 %84, 15
  %86 = load ptr, ptr %3, align 8, !tbaa !29
  %87 = getelementptr inbounds nuw %struct.TrueMotion1Context, ptr %86, i32 0, i32 24
  %88 = getelementptr inbounds [8 x i16], ptr %87, i64 0, i64 0
  %89 = call i32 @make_cdt24_entry(i32 noundef %82, i32 noundef %85, ptr noundef %88)
  %90 = and i32 -2, %89
  %91 = load ptr, ptr %3, align 8, !tbaa !29
  %92 = getelementptr inbounds nuw %struct.TrueMotion1Context, ptr %91, i32 0, i32 16
  %93 = load i32, ptr %6, align 4, !tbaa !45
  %94 = load i32, ptr %7, align 4, !tbaa !45
  %95 = add nsw i32 %93, %94
  %96 = sext i32 %95 to i64
  %97 = getelementptr inbounds [1024 x i32], ptr %92, i64 0, i64 %96
  store i32 %90, ptr %97, align 4, !tbaa !45
  br label %98

98:                                               ; preds = %22
  %99 = load i32, ptr %7, align 4, !tbaa !45
  %100 = add nsw i32 %99, 1
  store i32 %100, ptr %7, align 4, !tbaa !45
  br label %18, !llvm.loop !95

101:                                              ; preds = %18
  %102 = load ptr, ptr %3, align 8, !tbaa !29
  %103 = getelementptr inbounds nuw %struct.TrueMotion1Context, ptr %102, i32 0, i32 13
  %104 = load i32, ptr %6, align 4, !tbaa !45
  %105 = load i32, ptr %7, align 4, !tbaa !45
  %106 = sub nsw i32 %105, 1
  %107 = add nsw i32 %104, %106
  %108 = sext i32 %107 to i64
  %109 = getelementptr inbounds [1024 x i32], ptr %103, i64 0, i64 %108
  %110 = load i32, ptr %109, align 4, !tbaa !45
  %111 = or i32 %110, 1
  store i32 %111, ptr %109, align 4, !tbaa !45
  %112 = load ptr, ptr %3, align 8, !tbaa !29
  %113 = getelementptr inbounds nuw %struct.TrueMotion1Context, ptr %112, i32 0, i32 14
  %114 = load i32, ptr %6, align 4, !tbaa !45
  %115 = load i32, ptr %7, align 4, !tbaa !45
  %116 = sub nsw i32 %115, 1
  %117 = add nsw i32 %114, %116
  %118 = sext i32 %117 to i64
  %119 = getelementptr inbounds [1024 x i32], ptr %113, i64 0, i64 %118
  %120 = load i32, ptr %119, align 4, !tbaa !45
  %121 = or i32 %120, 1
  store i32 %121, ptr %119, align 4, !tbaa !45
  %122 = load ptr, ptr %3, align 8, !tbaa !29
  %123 = getelementptr inbounds nuw %struct.TrueMotion1Context, ptr %122, i32 0, i32 15
  %124 = load i32, ptr %6, align 4, !tbaa !45
  %125 = load i32, ptr %7, align 4, !tbaa !45
  %126 = sub nsw i32 %125, 1
  %127 = add nsw i32 %124, %126
  %128 = sext i32 %127 to i64
  %129 = getelementptr inbounds [1024 x i32], ptr %123, i64 0, i64 %128
  %130 = load i32, ptr %129, align 4, !tbaa !45
  %131 = or i32 %130, 1
  store i32 %131, ptr %129, align 4, !tbaa !45
  %132 = load ptr, ptr %3, align 8, !tbaa !29
  %133 = getelementptr inbounds nuw %struct.TrueMotion1Context, ptr %132, i32 0, i32 16
  %134 = load i32, ptr %6, align 4, !tbaa !45
  %135 = load i32, ptr %7, align 4, !tbaa !45
  %136 = sub nsw i32 %135, 1
  %137 = add nsw i32 %134, %136
  %138 = sext i32 %137 to i64
  %139 = getelementptr inbounds [1024 x i32], ptr %133, i64 0, i64 %138
  %140 = load i32, ptr %139, align 4, !tbaa !45
  %141 = or i32 %140, 1
  store i32 %141, ptr %139, align 4, !tbaa !45
  br label %142

142:                                              ; preds = %101
  %143 = load i32, ptr %6, align 4, !tbaa !45
  %144 = add nsw i32 %143, 4
  store i32 %144, ptr %6, align 4, !tbaa !45
  br label %9, !llvm.loop !96

145:                                              ; preds = %9
  call void @llvm.lifetime.end.p0(i64 1, ptr %8) #6
  call void @llvm.lifetime.end.p0(i64 4, ptr %7) #6
  call void @llvm.lifetime.end.p0(i64 4, ptr %6) #6
  call void @llvm.lifetime.end.p0(i64 4, ptr %5) #6
  ret void
}