; Function Attrs: nofree norecurse nosync nounwind memory(argmem: readwrite) uwtable
define internal fastcc void @gen_vector_table24(ptr noundef captures(none) %0, ptr noundef readonly captures(none) %1) unnamed_addr #6 {
  %3 = getelementptr inbounds nuw i8, ptr %0, i64 80
  %4 = getelementptr inbounds nuw i8, ptr %0, i64 4176
  %5 = getelementptr inbounds nuw i8, ptr %0, i64 8272
  %6 = getelementptr inbounds nuw i8, ptr %0, i64 12368
  %7 = getelementptr inbounds nuw i8, ptr %0, i64 16480
  %8 = getelementptr inbounds nuw i8, ptr %0, i64 16496
  %9 = getelementptr inbounds nuw i8, ptr %0, i64 16512
  %10 = getelementptr inbounds nuw i8, ptr %0, i64 16528
  br label %11

11:                                               ; preds = %2, %._crit_edge
  %indvars.iv53 = phi i64 [ 0, %2 ], [ %indvars.iv.next54, %._crit_edge ]
  %.050 = phi ptr [ %1, %2 ], [ %.1.lcssa, %._crit_edge ]
  %12 = load i8, ptr %.050, align 1, !tbaa !39
  %13 = lshr i8 %12, 1
  %14 = zext nneg i8 %13 to i64
  %.145 = getelementptr inbounds nuw i8, ptr %.050, i64 1
  %.not = icmp ult i8 %12, 2
  br i1 %.not, label %._crit_edge, label %.lr.ph.preheader

.lr.ph.preheader:                                 ; preds = %11
  %wide.trip.count = zext nneg i8 %13 to i64
  br label %.lr.ph

.lr.ph:                                           ; preds = %.lr.ph.preheader, %.lr.ph
  %indvars.iv = phi i64 [ 0, %.lr.ph.preheader ], [ %indvars.iv.next, %.lr.ph ]
  %.147 = phi ptr [ %.145, %.lr.ph.preheader ], [ %.1, %.lr.ph ]
  %15 = load i8, ptr %.147, align 1, !tbaa !39
  %16 = zext i8 %15 to i32
  %17 = lshr i32 %16, 4
  %18 = and i32 %16, 15
  %19 = zext nneg i32 %17 to i64
  %20 = getelementptr inbounds nuw i16, ptr %7, i64 %19
  %21 = load i16, ptr %20, align 2, !tbaa !48
  %22 = sext i16 %21 to i32
  %23 = zext nneg i32 %18 to i64
  %24 = getelementptr inbounds nuw i16, ptr %7, i64 %23
  %25 = load i16, ptr %24, align 2, !tbaa !48
  %26 = sext i16 %25 to i32
  %27 = shl nsw i32 %22, 1
  %reass.mul.i = mul i32 %26, 131584
  %28 = add i32 %reass.mul.i, %27
  %29 = add nuw nsw i64 %indvars.iv, %indvars.iv53
  %30 = getelementptr inbounds nuw [1024 x i32], ptr %3, i64 0, i64 %29
  store i32 %28, ptr %30, align 4, !tbaa !56
  %31 = getelementptr inbounds nuw i16, ptr %8, i64 %23
  %32 = load i16, ptr %31, align 2, !tbaa !48
  %33 = sext i16 %32 to i32
  %34 = getelementptr inbounds nuw i16, ptr %8, i64 %19
  %35 = load i16, ptr %34, align 2, !tbaa !48
  %36 = zext i16 %35 to i32
  %37 = shl i32 %36, 17
  %38 = shl nsw i32 %33, 1
  %39 = add i32 %37, %38
  %40 = getelementptr inbounds nuw [1024 x i32], ptr %4, i64 0, i64 %29
  store i32 %39, ptr %40, align 4, !tbaa !56
  %41 = getelementptr inbounds nuw i16, ptr %9, i64 %19
  %42 = load i16, ptr %41, align 2, !tbaa !48
  %43 = sext i16 %42 to i32
  %44 = getelementptr inbounds nuw i16, ptr %9, i64 %23
  %45 = load i16, ptr %44, align 2, !tbaa !48
  %46 = sext i16 %45 to i32
  %47 = shl nsw i32 %43, 1
  %reass.mul.i44 = mul i32 %46, 131584
  %48 = add i32 %reass.mul.i44, %47
  %49 = getelementptr inbounds nuw [1024 x i32], ptr %5, i64 0, i64 %29
  store i32 %48, ptr %49, align 4, !tbaa !56
  %50 = getelementptr inbounds nuw i16, ptr %10, i64 %23
  %51 = load i16, ptr %50, align 2, !tbaa !48
  %52 = sext i16 %51 to i32
  %53 = getelementptr inbounds nuw i16, ptr %10, i64 %19
  %54 = load i16, ptr %53, align 2, !tbaa !48
  %55 = zext i16 %54 to i32
  %56 = shl i32 %55, 17
  %57 = shl nsw i32 %52, 1
  %58 = add i32 %56, %57
  %59 = getelementptr inbounds nuw [1024 x i32], ptr %6, i64 0, i64 %29
  store i32 %58, ptr %59, align 4, !tbaa !56
  %indvars.iv.next = add nuw nsw i64 %indvars.iv, 1
  %.1 = getelementptr inbounds nuw i8, ptr %.147, i64 1
  %exitcond.not = icmp eq i64 %indvars.iv.next, %wide.trip.count
  br i1 %exitcond.not, label %._crit_edge, label %.lr.ph, !llvm.loop !74

._crit_edge:                                      ; preds = %.lr.ph, %11
  %.042.lcssa = phi i64 [ 0, %11 ], [ %14, %.lr.ph ]
  %.1.lcssa = phi ptr [ %.145, %11 ], [ %.1, %.lr.ph ]
  %60 = add nuw i64 %indvars.iv53, 4294967295
  %61 = add i64 %60, %.042.lcssa
  %sext = shl i64 %61, 32
  %62 = ashr exact i64 %sext, 32
  %63 = getelementptr inbounds [1024 x i32], ptr %3, i64 0, i64 %62
  %64 = load i32, ptr %63, align 4, !tbaa !56
  %65 = or i32 %64, 1
  store i32 %65, ptr %63, align 4, !tbaa !56
  %66 = getelementptr inbounds [1024 x i32], ptr %4, i64 0, i64 %62
  %67 = load i32, ptr %66, align 4, !tbaa !56
  %68 = or i32 %67, 1
  store i32 %68, ptr %66, align 4, !tbaa !56
  %69 = getelementptr inbounds [1024 x i32], ptr %5, i64 0, i64 %62
  %70 = load i32, ptr %69, align 4, !tbaa !56
  %71 = or i32 %70, 1
  store i32 %71, ptr %69, align 4, !tbaa !56
  %72 = getelementptr inbounds [1024 x i32], ptr %6, i64 0, i64 %62
  %73 = load i32, ptr %72, align 4, !tbaa !56
  %74 = or i32 %73, 1
  store i32 %74, ptr %72, align 4, !tbaa !56
  %indvars.iv.next54 = add nuw nsw i64 %indvars.iv53, 4
  %75 = icmp samesign ult i64 %indvars.iv53, 1020
  br i1 %75, label %11, label %76, !llvm.loop !75

76:                                               ; preds = %._crit_edge
  ret void
}